; Function Attrs: null_pointer_is_valid sspstrong uwtable
define internal i32 @dissect_mint_ethshim_static(ptr noundef %0, ptr noundef %1, ptr noundef %2, ptr readnone captures(none) %3) #0 {
  %5 = load i32, ptr @hf_mint_ethshim, align 4
  %6 = tail call ptr @proto_tree_add_item(ptr noundef %2, i32 noundef %5, ptr noundef %0, i32 noundef 0, i32 noundef 4, i32 noundef 0)
  %7 = load i32, ptr @ett_mint_ethshim, align 4
  %8 = tail call ptr @proto_item_add_subtree(ptr noundef %6, i32 noundef %7)
  %9 = load i32, ptr @hf_mint_ethshim_unknown, align 4
  %10 = tail call ptr @proto_tree_add_item(ptr noundef %8, i32 noundef %9, ptr noundef %0, i32 noundef 0, i32 noundef 2, i32 noundef 0)
  %11 = load i32, ptr @hf_mint_ethshim_length, align 4
  %12 = tail call ptr @proto_tree_add_item(ptr noundef %8, i32 noundef %11, ptr noundef %0, i32 noundef 2, i32 noundef 2, i32 noundef 0)
  %13 = tail call zeroext i16 @tvb_get_ntohs(ptr noundef %0, i32 noundef 2)
  %14 = zext i16 %13 to i32
  %15 = add nuw nsw i32 %14, 4
  %16 = tail call fastcc i32 @dissect_mint_common(ptr noundef %0, ptr noundef %1, ptr noundef %2, i32 noundef 4, i32 noundef %15, i32 noundef 34691)
  %17 = add i32 %16, 4
  ret i32 %17
}